; ModuleID = '29/1035.c'
source_filename = "29/1035.c"
target datalayout = "e-m:e-p270:32:32-p271:32:32-p272:64:64-i64:64-f80:128-n8:16:32:64-S128"
target triple = "x86_64-pc-linux-gnu"

@.str = private unnamed_addr constant [3 x i8] c"%d\00", align 1
@.str.1 = private unnamed_addr constant [7 x i8] c"%.3lf\0A\00", align 1

; Function Attrs: noinline nounwind uwtable
define dso_local i32 @main() #0 {
  %1 = alloca i32, align 4
  %2 = alloca i32, align 4
  %3 = alloca [100 x i32], align 16
  %4 = alloca i32, align 4
  %5 = alloca i32, align 4
  %6 = alloca double, align 8
  %7 = alloca double, align 8
  %8 = alloca double, align 8
  %9 = alloca double, align 8
  %10 = alloca double, align 8
  store i32 0, i32* %1, align 4
  %11 = call i32 (i8*, ...) @__isoc99_scanf(i8* getelementptr inbounds ([3 x i8], [3 x i8]* @.str, i64 0, i64 0), i32* %2)
  store i32 0, i32* %4, align 4
  br label %12

12:                                               ; preds = %21, %0
  %13 = load i32, i32* %4, align 4
  %14 = load i32, i32* %2, align 4
  %15 = icmp slt i32 %13, %14
  br i1 %15, label %16, label %24

16:                                               ; preds = %12
  %17 = load i32, i32* %4, align 4
  %18 = sext i32 %17 to i64
  %19 = getelementptr inbounds [100 x i32], [100 x i32]* %3, i64 0, i64 %18
  %20 = call i32 (i8*, ...) @__isoc99_scanf(i8* getelementptr inbounds ([3 x i8], [3 x i8]* @.str, i64 0, i64 0), i32* %19)
  br label %21

21:                                               ; preds = %16
  %22 = load i32, i32* %4, align 4
  %23 = add nsw i32 %22, 1
  store i32 %23, i32* %4, align 4
  br label %12

24:                                               ; preds = %12
  store i32 0, i32* %4, align 4
  br label %25

25:                                               ; preds = %58, %24
  %26 = load i32, i32* %4, align 4
  %27 = load i32, i32* %2, align 4
  %28 = icmp slt i32 %26, %27
  br i1 %28, label %29, label %61

29:                                               ; preds = %25
  store double 0.000000e+00, double* %7, align 8
  store double 1.000000e+00, double* %9, align 8
  store double 2.000000e+00, double* %10, align 8
  %30 = load double, double* %10, align 8
  %31 = load double, double* %9, align 8
  %32 = fdiv double %30, %31
  store double %32, double* %6, align 8
  store i32 0, i32* %5, align 4
  br label %33

33:                                               ; preds = %52, %29
  %34 = load i32, i32* %5, align 4
  %35 = load i32, i32* %4, align 4
  %36 = sext i32 %35 to i64
  %37 = getelementptr inbounds [100 x i32], [100 x i32]* %3, i64 0, i64 %36
  %38 = load i32, i32* %37, align 4
  %39 = icmp slt i32 %34, %38
  br i1 %39, label %40, label %55

40:                                               ; preds = %33
  %41 = load double, double* %7, align 8
  %42 = load double, double* %6, align 8
  %43 = fadd double %41, %42
  store double %43, double* %7, align 8
  %44 = load double, double* %9, align 8
  store double %44, double* %8, align 8
  %45 = load double, double* %10, align 8
  store double %45, double* %9, align 8
  %46 = load double, double* %8, align 8
  %47 = load double, double* %10, align 8
  %48 = fadd double %46, %47
  store double %48, double* %10, align 8
  %49 = load double, double* %10, align 8
  %50 = load double, double* %9, align 8
  %51 = fdiv double %49, %50
  store double %51, double* %6, align 8
  br label %52

52:                                               ; preds = %40
  %53 = load i32, i32* %5, align 4
  %54 = add nsw i32 %53, 1
  store i32 %54, i32* %5, align 4
  br label %33

55:                                               ; preds = %33
  %56 = load double, double* %7, align 8
  %57 = call i32 (i8*, ...) @printf(i8* getelementptr inbounds ([7 x i8], [7 x i8]* @.str.1, i64 0, i64 0), double %56)
  br label %58

58:                                               ; preds = %55
  %59 = load i32, i32* %4, align 4
  %60 = add nsw i32 %59, 1
  store i32 %60, i32* %4, align 4
  br label %25

61:                                               ; preds = %25
  ret i32 0
}

declare dso_local i32 @__isoc99_scanf(i8*, ...) #1

declare dso_local i32 @printf(i8*, ...) #1


!llvm.module.flags = !{!0}
!llvm.ident = !{!1}

!0 = !{i32 1, !"wchar_size", i32 4}
!1 = !{!"clang version 10.0.0-4ubuntu1 "}
